target datalayout = "e-m:e-p270:32:32-p271:32:32-p272:64:64-i64:64-i128:128-f80:128-n8:16:32:64-S128"
target triple = "x86_64-pc-linux-gnu"

%struct.wl_interface = type { ptr, i32, i32, ptr, i32, ptr }
%struct.zwp_input_timestamps_v1_listener = type { ptr }
%struct.SDL_WaylandSeat = type { ptr, ptr, ptr, ptr, ptr, %struct.wl_list, i32, i32, %struct.anon, %struct.anon.1, %struct.anon.4, %struct.anon.5, %struct.anon.6 }
%struct.wl_list = type { ptr, ptr }
%struct.anon = type { ptr, ptr, ptr, ptr, ptr, %struct.SDL_WaylandKeyboardRepeat, i64, i16, i16, i32, i8, %struct.anon.0 }
%struct.SDL_WaylandKeyboardRepeat = type { i32, i32, i32, i8, i8, i32, i64, i64, i64, i32, [8 x i8] }
%struct.anon.0 = type { ptr, ptr, ptr, ptr, i32, i32, i32, i32, i32, i32, i32, i32, i32, i32, i32 }
%struct.anon.1 = type { ptr, ptr, ptr, ptr, ptr, ptr, ptr, ptr, i64, i32, i32, %struct.SDL_Point, i32, %struct.anon.2, %struct.anon.3 }
%struct.SDL_Point = type { i32, i32 }
%struct.anon.2 = type { i32, float, i32, float, i64, i32 }
%struct.anon.3 = type { ptr, ptr, ptr, i64, i64, i32 }
%struct.anon.4 = type { ptr, ptr, i64, %struct.wl_list }
%struct.anon.5 = type { ptr, %struct.SDL_Rect, i8, i8 }
%struct.SDL_Rect = type { i32, i32, i32, i32 }
%struct.anon.6 = type { ptr, %struct.wl_list }
%struct.SDL_VideoData = type { i8, ptr, i32, ptr, ptr, ptr, ptr, i32, %struct.anon.7, ptr, ptr, ptr, ptr, ptr, ptr, ptr, ptr, ptr, ptr, ptr, ptr, ptr, ptr, ptr, ptr, ptr, ptr, ptr, ptr, ptr, ptr, %struct.wl_list, ptr, ptr, ptr, ptr, i32, i32, i8, i8 }
%struct.anon.7 = type { ptr }

@timestamp_listener = internal constant %struct.zwp_input_timestamps_v1_listener { ptr @input_timestamp_listener }, align 8
@WAYLAND_wl_proxy_marshal_flags = external global ptr, align 8
@zwp_input_timestamps_v1_interface = external constant %struct.wl_interface, align 8
@WAYLAND_wl_proxy_get_version = external global ptr, align 8
@WAYLAND_wl_proxy_add_listener = external global ptr, align 8

; Function Attrs: inlinehint nounwind uwtable
define internal ptr @zwp_input_timestamps_manager_v1_get_touch_timestamps(ptr noundef %0, ptr noundef %1) #2 {
  %3 = alloca ptr, align 8
  %4 = alloca ptr, align 8
  %5 = alloca ptr, align 8
  store ptr %0, ptr %3, align 8
  store ptr %1, ptr %4, align 8
  call void @llvm.lifetime.start.p0(i64 8, ptr %5) #10
  %6 = load ptr, ptr @WAYLAND_wl_proxy_marshal_flags, align 8
  %7 = load ptr, ptr %3, align 8
  %8 = load ptr, ptr @WAYLAND_wl_proxy_get_version, align 8
  %9 = load ptr, ptr %3, align 8
  %10 = call i32 %8(ptr noundef %9)
  %11 = load ptr, ptr %4, align 8
  %12 = call ptr (ptr, i32, ptr, i32, i32, ...) %6(ptr noundef %7, i32 noundef 3, ptr noundef @zwp_input_timestamps_v1_interface, i32 noundef %10, i32 noundef 0, ptr noundef null, ptr noundef %11)
  store ptr %12, ptr %5, align 8
  %13 = load ptr, ptr %5, align 8
  call void @llvm.lifetime.end.p0(i64 8, ptr %5) #10
  ret ptr %13
}

; Function Attrs: inlinehint nounwind uwtable
define internal ptr @zwp_input_timestamps_manager_v1_get_pointer_timestamps(ptr noundef %0, ptr noundef %1) #2 {
  %3 = alloca ptr, align 8
  %4 = alloca ptr, align 8
  %5 = alloca ptr, align 8
  store ptr %0, ptr %3, align 8
  store ptr %1, ptr %4, align 8
  call void @llvm.lifetime.start.p0(i64 8, ptr %5) #10
  %6 = load ptr, ptr @WAYLAND_wl_proxy_marshal_flags, align 8
  %7 = load ptr, ptr %3, align 8
  %8 = load ptr, ptr @WAYLAND_wl_proxy_get_version, align 8
  %9 = load ptr, ptr %3, align 8
  %10 = call i32 %8(ptr noundef %9)
  %11 = load ptr, ptr %4, align 8
  %12 = call ptr (ptr, i32, ptr, i32, i32, ...) %6(ptr noundef %7, i32 noundef 2, ptr noundef @zwp_input_timestamps_v1_interface, i32 noundef %10, i32 noundef 0, ptr noundef null, ptr noundef %11)
  store ptr %12, ptr %5, align 8
  %13 = load ptr, ptr %5, align 8
  call void @llvm.lifetime.end.p0(i64 8, ptr %5) #10
  ret ptr %13
}

; Function Attrs: inlinehint nounwind uwtable
define internal i32 @zwp_input_timestamps_v1_add_listener(ptr noundef %0, ptr noundef %1, ptr noundef %2) #2 {
  %4 = alloca ptr, align 8
  %5 = alloca ptr, align 8
  %6 = alloca ptr, align 8
  store ptr %0, ptr %4, align 8
  store ptr %1, ptr %5, align 8
  store ptr %2, ptr %6, align 8
  %7 = load ptr, ptr @WAYLAND_wl_proxy_add_listener, align 8
  %8 = load ptr, ptr %4, align 8
  %9 = load ptr, ptr %5, align 8
  %10 = load ptr, ptr %6, align 8
  %11 = call i32 %7(ptr noundef %8, ptr noundef %9, ptr noundef %10)
  ret i32 %11
}

; Function Attrs: inlinehint nounwind uwtable
define internal ptr @zwp_input_timestamps_manager_v1_get_keyboard_timestamps(ptr noundef %0, ptr noundef %1) #2 {
  %3 = alloca ptr, align 8
  %4 = alloca ptr, align 8
  %5 = alloca ptr, align 8
  store ptr %0, ptr %3, align 8
  store ptr %1, ptr %4, align 8
  call void @llvm.lifetime.start.p0(i64 8, ptr %5) #10
  %6 = load ptr, ptr @WAYLAND_wl_proxy_marshal_flags, align 8
  %7 = load ptr, ptr %3, align 8
  %8 = load ptr, ptr @WAYLAND_wl_proxy_get_version, align 8
  %9 = load ptr, ptr %3, align 8
  %10 = call i32 %8(ptr noundef %9)
  %11 = load ptr, ptr %4, align 8
  %12 = call ptr (ptr, i32, ptr, i32, i32, ...) %6(ptr noundef %7, i32 noundef 1, ptr noundef @zwp_input_timestamps_v1_interface, i32 noundef %10, i32 noundef 0, ptr noundef null, ptr noundef %11)
  store ptr %12, ptr %5, align 8
  %13 = load ptr, ptr %5, align 8
  call void @llvm.lifetime.end.p0(i64 8, ptr %5) #10
  ret ptr %13
}

; Function Attrs: nounwind uwtable
define internal void @Wayland_SeatRegisterInputTimestampListeners(ptr noundef %0) #0 {
  %2 = alloca ptr, align 8
  store ptr %0, ptr %2, align 8
  %3 = load ptr, ptr %2, align 8
  %4 = getelementptr inbounds nuw %struct.SDL_WaylandSeat, ptr %3, i32 0, i32 0
  %5 = load ptr, ptr %4, align 8
  %6 = getelementptr inbounds nuw %struct.SDL_VideoData, ptr %5, i32 0, i32 22
  %7 = load ptr, ptr %6, align 8
  %8 = icmp ne ptr %7, null
  br i1 %8, label %9, label %112

9:                                                ; preds = %1
  %10 = load ptr, ptr %2, align 8
  %11 = getelementptr inbounds nuw %struct.SDL_WaylandSeat, ptr %10, i32 0, i32 8
  %12 = getelementptr inbounds nuw %struct.anon, ptr %11, i32 0, i32 0
  %13 = load ptr, ptr %12, align 8
  %14 = icmp ne ptr %13, null
  br i1 %14, label %15, label %43

15:                                               ; preds = %9
  %16 = load ptr, ptr %2, align 8
  %17 = getelementptr inbounds nuw %struct.SDL_WaylandSeat, ptr %16, i32 0, i32 8
  %18 = getelementptr inbounds nuw %struct.anon, ptr %17, i32 0, i32 1
  %19 = load ptr, ptr %18, align 8
  %20 = icmp ne ptr %19, null
  br i1 %20, label %43, label %21

21:                                               ; preds = %15
  %22 = load ptr, ptr %2, align 8
  %23 = getelementptr inbounds nuw %struct.SDL_WaylandSeat, ptr %22, i32 0, i32 0
  %24 = load ptr, ptr %23, align 8
  %25 = getelementptr inbounds nuw %struct.SDL_VideoData, ptr %24, i32 0, i32 22
  %26 = load ptr, ptr %25, align 8
  %27 = load ptr, ptr %2, align 8
  %28 = getelementptr inbounds nuw %struct.SDL_WaylandSeat, ptr %27, i32 0, i32 8
  %29 = getelementptr inbounds nuw %struct.anon, ptr %28, i32 0, i32 0
  %30 = load ptr, ptr %29, align 8
  %31 = call ptr @zwp_input_timestamps_manager_v1_get_keyboard_timestamps(ptr noundef %26, ptr noundef %30)
  %32 = load ptr, ptr %2, align 8
  %33 = getelementptr inbounds nuw %struct.SDL_WaylandSeat, ptr %32, i32 0, i32 8
  %34 = getelementptr inbounds nuw %struct.anon, ptr %33, i32 0, i32 1
  store ptr %31, ptr %34, align 8
  %35 = load ptr, ptr %2, align 8
  %36 = getelementptr inbounds nuw %struct.SDL_WaylandSeat, ptr %35, i32 0, i32 8
  %37 = getelementptr inbounds nuw %struct.anon, ptr %36, i32 0, i32 1
  %38 = load ptr, ptr %37, align 8
  %39 = load ptr, ptr %2, align 8
  %40 = getelementptr inbounds nuw %struct.SDL_WaylandSeat, ptr %39, i32 0, i32 8
  %41 = getelementptr inbounds nuw %struct.anon, ptr %40, i32 0, i32 6
  %42 = call i32 @zwp_input_timestamps_v1_add_listener(ptr noundef %38, ptr noundef @timestamp_listener, ptr noundef %41)
  br label %43

43:                                               ; preds = %21, %15, %9
  %44 = load ptr, ptr %2, align 8
  %45 = getelementptr inbounds nuw %struct.SDL_WaylandSeat, ptr %44, i32 0, i32 9
  %46 = getelementptr inbounds nuw %struct.anon.1, ptr %45, i32 0, i32 0
  %47 = load ptr, ptr %46, align 8
  %48 = icmp ne ptr %47, null
  br i1 %48, label %49, label %77

49:                                               ; preds = %43
  %50 = load ptr, ptr %2, align 8
  %51 = getelementptr inbounds nuw %struct.SDL_WaylandSeat, ptr %50, i32 0, i32 9
  %52 = getelementptr inbounds nuw %struct.anon.1, ptr %51, i32 0, i32 2
  %53 = load ptr, ptr %52, align 8
  %54 = icmp ne ptr %53, null
  br i1 %54, label %77, label %55

55:                                               ; preds = %49
  %56 = load ptr, ptr %2, align 8
  %57 = getelementptr inbounds nuw %struct.SDL_WaylandSeat, ptr %56, i32 0, i32 0
  %58 = load ptr, ptr %57, align 8
  %59 = getelementptr inbounds nuw %struct.SDL_VideoData, ptr %58, i32 0, i32 22
  %60 = load ptr, ptr %59, align 8
  %61 = load ptr, ptr %2, align 8
  %62 = getelementptr inbounds nuw %struct.SDL_WaylandSeat, ptr %61, i32 0, i32 9
  %63 = getelementptr inbounds nuw %struct.anon.1, ptr %62, i32 0, i32 0
  %64 = load ptr, ptr %63, align 8
  %65 = call ptr @zwp_input_timestamps_manager_v1_get_pointer_timestamps(ptr noundef %60, ptr noundef %64)
  %66 = load ptr, ptr %2, align 8
  %67 = getelementptr inbounds nuw %struct.SDL_WaylandSeat, ptr %66, i32 0, i32 9
  %68 = getelementptr inbounds nuw %struct.anon.1, ptr %67, i32 0, i32 2
  store ptr %65, ptr %68, align 8
  %69 = load ptr, ptr %2, align 8
  %70 = getelementptr inbounds nuw %struct.SDL_WaylandSeat, ptr %69, i32 0, i32 9
  %71 = getelementptr inbounds nuw %struct.anon.1, ptr %70, i32 0, i32 2
  %72 = load ptr, ptr %71, align 8
  %73 = load ptr, ptr %2, align 8
  %74 = getelementptr inbounds nuw %struct.SDL_WaylandSeat, ptr %73, i32 0, i32 9
  %75 = getelementptr inbounds nuw %struct.anon.1, ptr %74, i32 0, i32 8
  %76 = call i32 @zwp_input_timestamps_v1_add_listener(ptr noundef %72, ptr noundef @timestamp_listener, ptr noundef %75)
  br label %77

77:                                               ; preds = %55, %49, %43
  %78 = load ptr, ptr %2, align 8
  %79 = getelementptr inbounds nuw %struct.SDL_WaylandSeat, ptr %78, i32 0, i32 10
  %80 = getelementptr inbounds nuw %struct.anon.4, ptr %79, i32 0, i32 0
  %81 = load ptr, ptr %80, align 8
  %82 = icmp ne ptr %81, null
  br i1 %82, label %83, label %111

83:                                               ; preds = %77
  %84 = load ptr, ptr %2, align 8
  %85 = getelementptr inbounds nuw %struct.SDL_WaylandSeat, ptr %84, i32 0, i32 10
  %86 = getelementptr inbounds nuw %struct.anon.4, ptr %85, i32 0, i32 1
  %87 = load ptr, ptr %86, align 8
  %88 = icmp ne ptr %87, null
  br i1 %88, label %111, label %89

89:                                               ; preds = %83
  %90 = load ptr, ptr %2, align 8
  %91 = getelementptr inbounds nuw %struct.SDL_WaylandSeat, ptr %90, i32 0, i32 0
  %92 = load ptr, ptr %91, align 8
  %93 = getelementptr inbounds nuw %struct.SDL_VideoData, ptr %92, i32 0, i32 22
  %94 = load ptr, ptr %93, align 8
  %95 = load ptr, ptr %2, align 8
  %96 = getelementptr inbounds nuw %struct.SDL_WaylandSeat, ptr %95, i32 0, i32 10
  %97 = getelementptr inbounds nuw %struct.anon.4, ptr %96, i32 0, i32 0
  %98 = load ptr, ptr %97, align 8
  %99 = call ptr @zwp_input_timestamps_manager_v1_get_touch_timestamps(ptr noundef %94, ptr noundef %98)
  %100 = load ptr, ptr %2, align 8
  %101 = getelementptr inbounds nuw %struct.SDL_WaylandSeat, ptr %100, i32 0, i32 10
  %102 = getelementptr inbounds nuw %struct.anon.4, ptr %101, i32 0, i32 1
  store ptr %99, ptr %102, align 8
  %103 = load ptr, ptr %2, align 8
  %104 = getelementptr inbounds nuw %struct.SDL_WaylandSeat, ptr %103, i32 0, i32 10
  %105 = getelementptr inbounds nuw %struct.anon.4, ptr %104, i32 0, i32 1
  %106 = load ptr, ptr %105, align 8
  %107 = load ptr, ptr %2, align 8
  %108 = getelementptr inbounds nuw %struct.SDL_WaylandSeat, ptr %107, i32 0, i32 10
  %109 = getelementptr inbounds nuw %struct.anon.4, ptr %108, i32 0, i32 2
  %110 = call i32 @zwp_input_timestamps_v1_add_listener(ptr noundef %106, ptr noundef @timestamp_listener, ptr noundef %109)
  br label %111

111:                                              ; preds = %89, %83, %77
  br label %112

112:                                              ; preds = %111, %1
  ret void
}