; Function Attrs: nounwind uwtable
define internal fastcc void @Wayland_SeatRegisterInputTimestampListeners(ptr noundef %0) unnamed_addr #0 {
  %2 = load ptr, ptr %0, align 8
  %3 = getelementptr inbounds nuw i8, ptr %2, i64 176
  %4 = load ptr, ptr %3, align 8
  %.not = icmp eq ptr %4, null
  br i1 %.not, label %53, label %5

5:                                                ; preds = %1
  %6 = getelementptr inbounds nuw i8, ptr %0, i64 64
  %7 = load ptr, ptr %6, align 8
  %.not25 = icmp eq ptr %7, null
  br i1 %.not25, label %19, label %8

8:                                                ; preds = %5
  %9 = getelementptr inbounds nuw i8, ptr %0, i64 72
  %10 = load ptr, ptr %9, align 8
  %.not26 = icmp eq ptr %10, null
  br i1 %.not26, label %11, label %19

11:                                               ; preds = %8
  %12 = load ptr, ptr @WAYLAND_wl_proxy_marshal_flags, align 8
  %13 = load ptr, ptr @WAYLAND_wl_proxy_get_version, align 8
  %14 = tail call i32 %13(ptr noundef nonnull %4) #12
  %15 = tail call ptr (ptr, i32, ptr, i32, i32, ...) %12(ptr noundef nonnull %4, i32 noundef 1, ptr noundef nonnull @zwp_input_timestamps_v1_interface, i32 noundef %14, i32 noundef 0, ptr noundef null, ptr noundef nonnull %7) #12
  store ptr %15, ptr %9, align 8
  %16 = getelementptr inbounds nuw i8, ptr %0, i64 168
  %17 = load ptr, ptr @WAYLAND_wl_proxy_add_listener, align 8
  %18 = tail call i32 %17(ptr noundef %15, ptr noundef nonnull @timestamp_listener, ptr noundef nonnull %16) #12
  br label %19

19:                                               ; preds = %11, %8, %5
  %20 = getelementptr inbounds nuw i8, ptr %0, i64 272
  %21 = load ptr, ptr %20, align 8
  %.not27 = icmp eq ptr %21, null
  br i1 %.not27, label %36, label %22

22:                                               ; preds = %19
  %23 = getelementptr inbounds nuw i8, ptr %0, i64 288
  %24 = load ptr, ptr %23, align 8
  %.not28 = icmp eq ptr %24, null
  br i1 %.not28, label %25, label %36

25:                                               ; preds = %22
  %26 = load ptr, ptr %0, align 8
  %27 = getelementptr inbounds nuw i8, ptr %26, i64 176
  %28 = load ptr, ptr %27, align 8
  %29 = load ptr, ptr @WAYLAND_wl_proxy_marshal_flags, align 8
  %30 = load ptr, ptr @WAYLAND_wl_proxy_get_version, align 8
  %31 = tail call i32 %30(ptr noundef %28) #12
  %32 = tail call ptr (ptr, i32, ptr, i32, i32, ...) %29(ptr noundef %28, i32 noundef 2, ptr noundef nonnull @zwp_input_timestamps_v1_interface, i32 noundef %31, i32 noundef 0, ptr noundef null, ptr noundef nonnull %21) #12
  store ptr %32, ptr %23, align 8
  %33 = getelementptr inbounds nuw i8, ptr %0, i64 336
  %34 = load ptr, ptr @WAYLAND_wl_proxy_add_listener, align 8
  %35 = tail call i32 %34(ptr noundef %32, ptr noundef nonnull @timestamp_listener, ptr noundef nonnull %33) #12
  br label %36

36:                                               ; preds = %25, %22, %19
  %37 = getelementptr inbounds nuw i8, ptr %0, i64 448
  %38 = load ptr, ptr %37, align 8
  %.not29 = icmp eq ptr %38, null
  br i1 %.not29, label %53, label %39

39:                                               ; preds = %36
  %40 = getelementptr inbounds nuw i8, ptr %0, i64 456
  %41 = load ptr, ptr %40, align 8
  %.not30 = icmp eq ptr %41, null
  br i1 %.not30, label %42, label %53

42:                                               ; preds = %39
  %43 = load ptr, ptr %0, align 8
  %44 = getelementptr inbounds nuw i8, ptr %43, i64 176
  %45 = load ptr, ptr %44, align 8
  %46 = load ptr, ptr @WAYLAND_wl_proxy_marshal_flags, align 8
  %47 = load ptr, ptr @WAYLAND_wl_proxy_get_version, align 8
  %48 = tail call i32 %47(ptr noundef %45) #12
  %49 = tail call ptr (ptr, i32, ptr, i32, i32, ...) %46(ptr noundef %45, i32 noundef 3, ptr noundef nonnull @zwp_input_timestamps_v1_interface, i32 noundef %48, i32 noundef 0, ptr noundef null, ptr noundef nonnull %38) #12
  store ptr %49, ptr %40, align 8
  %50 = getelementptr inbounds nuw i8, ptr %0, i64 464
  %51 = load ptr, ptr @WAYLAND_wl_proxy_add_listener, align 8
  %52 = tail call i32 %51(ptr noundef %49, ptr noundef nonnull @timestamp_listener, ptr noundef nonnull %50) #12
  br label %53

53:                                               ; preds = %36, %39, %42, %1
  ret void
}